target datalayout = "e-m:e-p270:32:32-p271:32:32-p272:64:64-i64:64-i128:128-f80:128-n8:16:32:64-S128"
target triple = "x86_64-pc-linux-gnu"

; Function Attrs: mustprogress uwtable
define internal noundef i32 @_ZN6icu_7712_GLOBAL__N_110daysInYearEiR10UErrorCode(i32 noundef %0, ptr noundef nonnull align 4 dereferenceable(4) %1) #0 {
  %3 = alloca i32, align 4
  %4 = alloca i32, align 4
  %5 = alloca ptr, align 8
  store i32 %0, ptr %4, align 4, !tbaa !15
  store ptr %1, ptr %5, align 8, !tbaa !10
  %6 = load ptr, ptr %5, align 8, !tbaa !10
  %7 = load i32, ptr %6, align 4, !tbaa !17
  %8 = call noundef signext i8 @_ZL9U_FAILURE10UErrorCode(i32 noundef %7)
  %9 = icmp ne i8 %8, 0
  br i1 %9, label %10, label %11

10:                                               ; preds = %2
  store i32 0, ptr %3, align 4
  br label %20

11:                                               ; preds = %2
  %12 = load i32, ptr %4, align 4, !tbaa !15
  %13 = add nsw i32 %12, 1
  %14 = load ptr, ptr %5, align 8, !tbaa !10
  %15 = call noundef i32 @_ZN6icu_7712_GLOBAL__N_111startOfYearEiR10UErrorCode(i32 noundef %13, ptr noundef nonnull align 4 dereferenceable(4) %14)
  %16 = load i32, ptr %4, align 4, !tbaa !15
  %17 = load ptr, ptr %5, align 8, !tbaa !10
  %18 = call noundef i32 @_ZN6icu_7712_GLOBAL__N_111startOfYearEiR10UErrorCode(i32 noundef %16, ptr noundef nonnull align 4 dereferenceable(4) %17)
  %19 = sub nsw i32 %15, %18
  store i32 %19, ptr %3, align 4
  br label %20

20:                                               ; preds = %11, %10
  %21 = load i32, ptr %3, align 4
  ret i32 %21
}

; Function Attrs: inlinehint mustprogress nounwind uwtable
define internal noundef signext i8 @_ZL9U_FAILURE10UErrorCode(i32 noundef %0) #4 {
  %2 = alloca i32, align 4
  store i32 %0, ptr %2, align 4, !tbaa !17
  %3 = load i32, ptr %2, align 4, !tbaa !17
  %4 = icmp sgt i32 %3, 0
  %5 = zext i1 %4 to i8
  ret i8 %5
}

; Function Attrs: mustprogress uwtable
define internal noundef i32 @_ZN6icu_7712_GLOBAL__N_18yearTypeEiR10UErrorCode(i32 noundef %0, ptr noundef nonnull align 4 dereferenceable(4) %1) #0 {
  %3 = alloca i32, align 4
  %4 = alloca i32, align 4
  %5 = alloca ptr, align 8
  %6 = alloca i32, align 4
  %7 = alloca i32, align 4
  %8 = alloca i32, align 4
  store i32 %0, ptr %4, align 4, !tbaa !15
  store ptr %1, ptr %5, align 8, !tbaa !10
  %9 = load ptr, ptr %5, align 8, !tbaa !10
  %10 = load i32, ptr %9, align 4, !tbaa !17
  %11 = call noundef signext i8 @_ZL9U_FAILURE10UErrorCode(i32 noundef %10)
  %12 = icmp ne i8 %11, 0
  br i1 %12, label %13, label %14

13:                                               ; preds = %2
  store i32 0, ptr %3, align 4
  br label %38

14:                                               ; preds = %2
  call void @llvm.lifetime.start.p0(i64 4, ptr %6) #11
  %15 = load i32, ptr %4, align 4, !tbaa !15
  %16 = load ptr, ptr %5, align 8, !tbaa !10
  %17 = call noundef i32 @_ZN6icu_7712_GLOBAL__N_110daysInYearEiR10UErrorCode(i32 noundef %15, ptr noundef nonnull align 4 dereferenceable(4) %16)
  store i32 %17, ptr %6, align 4, !tbaa !15
  %18 = load ptr, ptr %5, align 8, !tbaa !10
  %19 = load i32, ptr %18, align 4, !tbaa !17
  %20 = call noundef signext i8 @_ZL9U_FAILURE10UErrorCode(i32 noundef %19)
  %21 = icmp ne i8 %20, 0
  br i1 %21, label %22, label %23

22:                                               ; preds = %14
  store i32 0, ptr %3, align 4
  store i32 1, ptr %7, align 4
  br label %37

23:                                               ; preds = %14
  %24 = load i32, ptr %6, align 4, !tbaa !15
  %25 = icmp sgt i32 %24, 380
  br i1 %25, label %26, label %29

26:                                               ; preds = %23
  %27 = load i32, ptr %6, align 4, !tbaa !15
  %28 = sub nsw i32 %27, 30
  store i32 %28, ptr %6, align 4, !tbaa !15
  br label %29

29:                                               ; preds = %26, %23
  call void @llvm.lifetime.start.p0(i64 4, ptr %8) #11
  store i32 0, ptr %8, align 4, !tbaa !15
  %30 = load i32, ptr %6, align 4, !tbaa !15
  switch i32 %30, label %34 [
    i32 353, label %31
    i32 354, label %32
    i32 355, label %33
  ]

31:                                               ; preds = %29
  store i32 0, ptr %8, align 4, !tbaa !15
  br label %35

32:                                               ; preds = %29
  store i32 1, ptr %8, align 4, !tbaa !15
  br label %35

33:                                               ; preds = %29
  store i32 2, ptr %8, align 4, !tbaa !15
  br label %35

34:                                               ; preds = %29
  store i32 1, ptr %8, align 4, !tbaa !15
  br label %35

35:                                               ; preds = %34, %33, %32, %31
  %36 = load i32, ptr %8, align 4, !tbaa !15
  store i32 %36, ptr %3, align 4
  store i32 1, ptr %7, align 4
  call void @llvm.lifetime.end.p0(i64 4, ptr %8) #11
  br label %37

37:                                               ; preds = %35, %22
  call void @llvm.lifetime.end.p0(i64 4, ptr %6) #11
  br label %38

38:                                               ; preds = %37, %13
  %39 = load i32, ptr %3, align 4
  ret i32 %39
}