; Function Attrs: mustprogress uwtable
define internal fastcc noundef range(i32 0, 3) i32 @_ZN6icu_7712_GLOBAL__N_18yearTypeEiR10UErrorCode(i32 noundef %0, ptr noundef nonnull align 4 dereferenceable(4) %1) unnamed_addr #0 {
  %3 = load i32, ptr %1, align 4, !tbaa !6
  %4 = icmp slt i32 %3, 1
  br i1 %4, label %_ZN6icu_7712_GLOBAL__N_110daysInYearEiR10UErrorCode.exit, label %14

_ZN6icu_7712_GLOBAL__N_110daysInYearEiR10UErrorCode.exit: ; preds = %2
  %5 = add nsw i32 %0, 1
  %6 = tail call fastcc noundef i32 @_ZN6icu_7712_GLOBAL__N_111startOfYearEiR10UErrorCode(i32 noundef %5, ptr noundef nonnull align 4 dereferenceable(4) %1)
  %7 = tail call fastcc noundef i32 @_ZN6icu_7712_GLOBAL__N_111startOfYearEiR10UErrorCode(i32 noundef %0, ptr noundef nonnull align 4 dereferenceable(4) %1)
  %8 = load i32, ptr %1, align 4, !tbaa !6
  %9 = icmp slt i32 %8, 1
  br i1 %9, label %10, label %14

10:                                               ; preds = %_ZN6icu_7712_GLOBAL__N_110daysInYearEiR10UErrorCode.exit
  %11 = sub nsw i32 %6, %7
  %12 = icmp sgt i32 %11, 380
  %13 = add nsw i32 %11, -30
  %spec.select = select i1 %12, i32 %13, i32 %11
  %switch.selectcmp = icmp eq i32 %spec.select, 355
  %switch.select = select i1 %switch.selectcmp, i32 2, i32 1
  %switch.selectcmp13 = icmp eq i32 %spec.select, 353
  %switch.select14 = select i1 %switch.selectcmp13, i32 0, i32 %switch.select
  br label %14

14:                                               ; preds = %10, %_ZN6icu_7712_GLOBAL__N_110daysInYearEiR10UErrorCode.exit, %2
  %.09 = phi i32 [ 0, %2 ], [ 0, %_ZN6icu_7712_GLOBAL__N_110daysInYearEiR10UErrorCode.exit ], [ %switch.select14, %10 ]
  ret i32 %.09
}